target datalayout = "e-m:e-p270:32:32-p271:32:32-p272:64:64-i64:64-i128:128-f80:128-n8:16:32:64-S128"
target triple = "x86_64-pc-linux-gnu"

%struct.dsa_area_control = type { %struct.dsa_segment_header, i32, [1024 x i32], [16 x i64], [38 x %struct.dsa_area_pool], i64, i64, i64, i64, i64, i32, i8, i64, i32, %struct.LWLock }
%struct.dsa_segment_header = type { i32, i64, i64, i64, i64, i64, i8 }
%struct.dsa_area_pool = type { %struct.LWLock, [4 x i64] }
%struct.LWLock = type { i16, %struct.pg_atomic_uint32, %struct.proclist_head }
%struct.pg_atomic_uint32 = type { i32 }
%struct.proclist_head = type { i32, i32 }
%struct.dsa_area = type { ptr, ptr, [1024 x %struct.dsa_segment_map], i64, i64 }
%struct.dsa_segment_map = type { ptr, ptr, ptr, ptr, ptr }
%struct.dsa_area_span = type { i64, i64, i64, i64, i64, i16, i16, i16, i16, i16, i16 }
%struct.FreePageManager = type { %union.RelptrFreePageManager, %union.RelptrFreePageBtree, %union.RelptrFreePageSpanLeader, i32, i32, i64, i64, i64, i8, [129 x %union.RelptrFreePageSpanLeader] }
%union.RelptrFreePageManager = type { ptr }
%union.RelptrFreePageBtree = type { ptr }
%union.RelptrFreePageSpanLeader = type { ptr }

; Function Attrs: nounwind uwtable
define internal void @check_for_freed_segments(ptr noundef %0) #0 {
  %2 = alloca ptr, align 8
  %3 = alloca i64, align 8
  store ptr %0, ptr %2, align 8
  call void @llvm.lifetime.start.p0(i64 8, ptr %3) #8
  call void asm sideeffect "", "~{memory},~{dirflag},~{fpsr},~{flags}"() #8, !srcloc !13
  %4 = load ptr, ptr %2, align 8
  %5 = getelementptr inbounds nuw %struct.dsa_area, ptr %4, i32 0, i32 0
  %6 = load ptr, ptr %5, align 8
  %7 = getelementptr inbounds nuw %struct.dsa_area_control, ptr %6, i32 0, i32 12
  %8 = load i64, ptr %7, align 8
  store i64 %8, ptr %3, align 8
  %9 = load ptr, ptr %2, align 8
  %10 = getelementptr inbounds nuw %struct.dsa_area, ptr %9, i32 0, i32 4
  %11 = load i64, ptr %10, align 8
  %12 = load i64, ptr %3, align 8
  %13 = icmp ne i64 %11, %12
  %14 = zext i1 %13 to i32
  %15 = icmp ne i32 %14, 0
  %16 = zext i1 %15 to i32
  %17 = sext i32 %16 to i64
  %18 = call i64 @llvm.expect.i64(i64 %17, i64 0)
  %19 = icmp ne i64 %18, 0
  br i1 %19, label %20, label %31

20:                                               ; preds = %1
  %21 = load ptr, ptr %2, align 8
  %22 = getelementptr inbounds nuw %struct.dsa_area, ptr %21, i32 0, i32 0
  %23 = load ptr, ptr %22, align 8
  %24 = getelementptr inbounds nuw %struct.dsa_area_control, ptr %23, i32 0, i32 14
  %25 = call zeroext i1 @LWLockAcquire(ptr noundef %24, i32 noundef 0)
  %26 = load ptr, ptr %2, align 8
  call void @check_for_freed_segments_locked(ptr noundef %26)
  %27 = load ptr, ptr %2, align 8
  %28 = getelementptr inbounds nuw %struct.dsa_area, ptr %27, i32 0, i32 0
  %29 = load ptr, ptr %28, align 8
  %30 = getelementptr inbounds nuw %struct.dsa_area_control, ptr %29, i32 0, i32 14
  call void @LWLockRelease(ptr noundef %30)
  br label %31

31:                                               ; preds = %20, %1
  call void @llvm.lifetime.end.p0(i64 8, ptr %3) #8
  ret void
}

; Function Attrs: nounwind uwtable
define internal void @unlink_segment(ptr noundef %0, ptr noundef %1) #0 {
  %3 = alloca ptr, align 8
  %4 = alloca ptr, align 8
  %5 = alloca ptr, align 8
  %6 = alloca ptr, align 8
  store ptr %0, ptr %3, align 8
  store ptr %1, ptr %4, align 8
  %7 = load ptr, ptr %4, align 8
  %8 = getelementptr inbounds nuw %struct.dsa_segment_map, ptr %7, i32 0, i32 2
  %9 = load ptr, ptr %8, align 8
  %10 = getelementptr inbounds nuw %struct.dsa_segment_header, ptr %9, i32 0, i32 3
  %11 = load i64, ptr %10, align 8
  %12 = icmp ne i64 %11, -1
  br i1 %12, label %13, label %30

13:                                               ; preds = %2
  call void @llvm.lifetime.start.p0(i64 8, ptr %5) #8
  %14 = load ptr, ptr %3, align 8
  %15 = load ptr, ptr %4, align 8
  %16 = getelementptr inbounds nuw %struct.dsa_segment_map, ptr %15, i32 0, i32 2
  %17 = load ptr, ptr %16, align 8
  %18 = getelementptr inbounds nuw %struct.dsa_segment_header, ptr %17, i32 0, i32 3
  %19 = load i64, ptr %18, align 8
  %20 = call ptr @get_segment_by_index(ptr noundef %14, i64 noundef %19)
  store ptr %20, ptr %5, align 8
  %21 = load ptr, ptr %4, align 8
  %22 = getelementptr inbounds nuw %struct.dsa_segment_map, ptr %21, i32 0, i32 2
  %23 = load ptr, ptr %22, align 8
  %24 = getelementptr inbounds nuw %struct.dsa_segment_header, ptr %23, i32 0, i32 4
  %25 = load i64, ptr %24, align 8
  %26 = load ptr, ptr %5, align 8
  %27 = getelementptr inbounds nuw %struct.dsa_segment_map, ptr %26, i32 0, i32 2
  %28 = load ptr, ptr %27, align 8
  %29 = getelementptr inbounds nuw %struct.dsa_segment_header, ptr %28, i32 0, i32 4
  store i64 %25, ptr %29, align 8
  call void @llvm.lifetime.end.p0(i64 8, ptr %5) #8
  br label %46

30:                                               ; preds = %2
  %31 = load ptr, ptr %4, align 8
  %32 = getelementptr inbounds nuw %struct.dsa_segment_map, ptr %31, i32 0, i32 2
  %33 = load ptr, ptr %32, align 8
  %34 = getelementptr inbounds nuw %struct.dsa_segment_header, ptr %33, i32 0, i32 4
  %35 = load i64, ptr %34, align 8
  %36 = load ptr, ptr %3, align 8
  %37 = getelementptr inbounds nuw %struct.dsa_area, ptr %36, i32 0, i32 0
  %38 = load ptr, ptr %37, align 8
  %39 = getelementptr inbounds nuw %struct.dsa_area_control, ptr %38, i32 0, i32 3
  %40 = load ptr, ptr %4, align 8
  %41 = getelementptr inbounds nuw %struct.dsa_segment_map, ptr %40, i32 0, i32 2
  %42 = load ptr, ptr %41, align 8
  %43 = getelementptr inbounds nuw %struct.dsa_segment_header, ptr %42, i32 0, i32 5
  %44 = load i64, ptr %43, align 8
  %45 = getelementptr inbounds nuw [16 x i64], ptr %39, i64 0, i64 %44
  store i64 %35, ptr %45, align 8
  br label %46

46:                                               ; preds = %30, %13
  %47 = load ptr, ptr %4, align 8
  %48 = getelementptr inbounds nuw %struct.dsa_segment_map, ptr %47, i32 0, i32 2
  %49 = load ptr, ptr %48, align 8
  %50 = getelementptr inbounds nuw %struct.dsa_segment_header, ptr %49, i32 0, i32 4
  %51 = load i64, ptr %50, align 8
  %52 = icmp ne i64 %51, -1
  br i1 %52, label %53, label %70

53:                                               ; preds = %46
  call void @llvm.lifetime.start.p0(i64 8, ptr %6) #8
  %54 = load ptr, ptr %3, align 8
  %55 = load ptr, ptr %4, align 8
  %56 = getelementptr inbounds nuw %struct.dsa_segment_map, ptr %55, i32 0, i32 2
  %57 = load ptr, ptr %56, align 8
  %58 = getelementptr inbounds nuw %struct.dsa_segment_header, ptr %57, i32 0, i32 4
  %59 = load i64, ptr %58, align 8
  %60 = call ptr @get_segment_by_index(ptr noundef %54, i64 noundef %59)
  store ptr %60, ptr %6, align 8
  %61 = load ptr, ptr %4, align 8
  %62 = getelementptr inbounds nuw %struct.dsa_segment_map, ptr %61, i32 0, i32 2
  %63 = load ptr, ptr %62, align 8
  %64 = getelementptr inbounds nuw %struct.dsa_segment_header, ptr %63, i32 0, i32 3
  %65 = load i64, ptr %64, align 8
  %66 = load ptr, ptr %6, align 8
  %67 = getelementptr inbounds nuw %struct.dsa_segment_map, ptr %66, i32 0, i32 2
  %68 = load ptr, ptr %67, align 8
  %69 = getelementptr inbounds nuw %struct.dsa_segment_header, ptr %68, i32 0, i32 3
  store i64 %65, ptr %69, align 8
  call void @llvm.lifetime.end.p0(i64 8, ptr %6) #8
  br label %70

70:                                               ; preds = %53, %46
  ret void
}

; Function Attrs: nounwind uwtable
define dso_local ptr @dsa_get_address(ptr noundef %0, i64 noundef %1) #0 {
  %3 = alloca ptr, align 8
  %4 = alloca ptr, align 8
  %5 = alloca i64, align 8
  %6 = alloca i64, align 8
  %7 = alloca i64, align 8
  %8 = alloca i32, align 4
  store ptr %0, ptr %4, align 8
  store i64 %1, ptr %5, align 8
  call void @llvm.lifetime.start.p0(i64 8, ptr %6) #8
  call void @llvm.lifetime.start.p0(i64 8, ptr %7) #8
  %9 = load i64, ptr %5, align 8
  %10 = icmp ne i64 %9, 0
  br i1 %10, label %12, label %11

11:                                               ; preds = %2
  store ptr null, ptr %3, align 8
  store i32 1, ptr %8, align 4
  br label %44

12:                                               ; preds = %2
  %13 = load ptr, ptr %4, align 8
  call void @check_for_freed_segments(ptr noundef %13)
  %14 = load i64, ptr %5, align 8
  %15 = lshr i64 %14, 40
  store i64 %15, ptr %6, align 8
  %16 = load i64, ptr %5, align 8
  %17 = and i64 %16, 1099511627775
  store i64 %17, ptr %7, align 8
  %18 = load ptr, ptr %4, align 8
  %19 = getelementptr inbounds nuw %struct.dsa_area, ptr %18, i32 0, i32 2
  %20 = load i64, ptr %6, align 8
  %21 = getelementptr inbounds nuw [1024 x %struct.dsa_segment_map], ptr %19, i64 0, i64 %20
  %22 = getelementptr inbounds nuw %struct.dsa_segment_map, ptr %21, i32 0, i32 1
  %23 = load ptr, ptr %22, align 8
  %24 = icmp eq ptr %23, null
  %25 = zext i1 %24 to i32
  %26 = icmp ne i32 %25, 0
  %27 = zext i1 %26 to i32
  %28 = sext i32 %27 to i64
  %29 = call i64 @llvm.expect.i64(i64 %28, i64 0)
  %30 = icmp ne i64 %29, 0
  br i1 %30, label %31, label %35

31:                                               ; preds = %12
  %32 = load ptr, ptr %4, align 8
  %33 = load i64, ptr %6, align 8
  %34 = call ptr @get_segment_by_index(ptr noundef %32, i64 noundef %33)
  br label %35

35:                                               ; preds = %31, %12
  %36 = load ptr, ptr %4, align 8
  %37 = getelementptr inbounds nuw %struct.dsa_area, ptr %36, i32 0, i32 2
  %38 = load i64, ptr %6, align 8
  %39 = getelementptr inbounds nuw [1024 x %struct.dsa_segment_map], ptr %37, i64 0, i64 %38
  %40 = getelementptr inbounds nuw %struct.dsa_segment_map, ptr %39, i32 0, i32 1
  %41 = load ptr, ptr %40, align 8
  %42 = load i64, ptr %7, align 8
  %43 = getelementptr inbounds nuw i8, ptr %41, i64 %42
  store ptr %43, ptr %3, align 8
  store i32 1, ptr %8, align 4
  br label %44

44:                                               ; preds = %35, %11
  call void @llvm.lifetime.end.p0(i64 8, ptr %7) #8
  call void @llvm.lifetime.end.p0(i64 8, ptr %6) #8
  %45 = load ptr, ptr %3, align 8
  ret ptr %45
}

; Function Attrs: nounwind uwtable
define internal void @destroy_superblock(ptr noundef %0, i64 noundef %1) #0 {
  %3 = alloca ptr, align 8
  %4 = alloca i64, align 8
  %5 = alloca ptr, align 8
  %6 = alloca i32, align 4
  %7 = alloca ptr, align 8
  %8 = alloca i64, align 8
  store ptr %0, ptr %3, align 8
  store i64 %1, ptr %4, align 8
  call void @llvm.lifetime.start.p0(i64 8, ptr %5) #8
  %9 = load ptr, ptr %3, align 8
  %10 = load i64, ptr %4, align 8
  %11 = call ptr @dsa_get_address(ptr noundef %9, i64 noundef %10)
  store ptr %11, ptr %5, align 8
  call void @llvm.lifetime.start.p0(i64 4, ptr %6) #8
  %12 = load ptr, ptr %5, align 8
  %13 = getelementptr inbounds nuw %struct.dsa_area_span, ptr %12, i32 0, i32 5
  %14 = load i16, ptr %13, align 8
  %15 = zext i16 %14 to i32
  store i32 %15, ptr %6, align 4
  call void @llvm.lifetime.start.p0(i64 8, ptr %7) #8
  %16 = load ptr, ptr %3, align 8
  %17 = load ptr, ptr %5, align 8
  call void @unlink_span(ptr noundef %16, ptr noundef %17)
  %18 = load ptr, ptr %3, align 8
  %19 = getelementptr inbounds nuw %struct.dsa_area, ptr %18, i32 0, i32 0
  %20 = load ptr, ptr %19, align 8
  %21 = getelementptr inbounds nuw %struct.dsa_area_control, ptr %20, i32 0, i32 14
  %22 = call zeroext i1 @LWLockAcquire(ptr noundef %21, i32 noundef 0)
  %23 = load ptr, ptr %3, align 8
  call void @check_for_freed_segments_locked(ptr noundef %23)
  %24 = load ptr, ptr %3, align 8
  %25 = load ptr, ptr %5, align 8
  %26 = getelementptr inbounds nuw %struct.dsa_area_span, ptr %25, i32 0, i32 3
  %27 = load i64, ptr %26, align 8
  %28 = lshr i64 %27, 40
  %29 = call ptr @get_segment_by_index(ptr noundef %24, i64 noundef %28)
  store ptr %29, ptr %7, align 8
  %30 = load ptr, ptr %7, align 8
  %31 = getelementptr inbounds nuw %struct.dsa_segment_map, ptr %30, i32 0, i32 3
  %32 = load ptr, ptr %31, align 8
  %33 = load ptr, ptr %5, align 8
  %34 = getelementptr inbounds nuw %struct.dsa_area_span, ptr %33, i32 0, i32 3
  %35 = load i64, ptr %34, align 8
  %36 = and i64 %35, 1099511627775
  %37 = udiv i64 %36, 4096
  %38 = load ptr, ptr %5, align 8
  %39 = getelementptr inbounds nuw %struct.dsa_area_span, ptr %38, i32 0, i32 4
  %40 = load i64, ptr %39, align 8
  call void @FreePageManagerPut(ptr noundef %32, i64 noundef %37, i64 noundef %40)
  %41 = load ptr, ptr %7, align 8
  %42 = getelementptr inbounds nuw %struct.dsa_segment_map, ptr %41, i32 0, i32 3
  %43 = load ptr, ptr %42, align 8
  %44 = getelementptr inbounds nuw %struct.FreePageManager, ptr %43, i32 0, i32 7
  %45 = load i64, ptr %44, align 8
  %46 = load ptr, ptr %7, align 8
  %47 = getelementptr inbounds nuw %struct.dsa_segment_map, ptr %46, i32 0, i32 2
  %48 = load ptr, ptr %47, align 8
  %49 = getelementptr inbounds nuw %struct.dsa_segment_header, ptr %48, i32 0, i32 1
  %50 = load i64, ptr %49, align 8
  %51 = icmp eq i64 %45, %50
  br i1 %51, label %52, label %107

52:                                               ; preds = %2
  call void @llvm.lifetime.start.p0(i64 8, ptr %8) #8
  %53 = load ptr, ptr %7, align 8
  %54 = load ptr, ptr %3, align 8
  %55 = getelementptr inbounds nuw %struct.dsa_area, ptr %54, i32 0, i32 2
  %56 = getelementptr inbounds [1024 x %struct.dsa_segment_map], ptr %55, i64 0, i64 0
  %57 = ptrtoint ptr %53 to i64
  %58 = ptrtoint ptr %56 to i64
  %59 = sub i64 %57, %58
  %60 = sdiv exact i64 %59, 40
  store i64 %60, ptr %8, align 8
  %61 = load i64, ptr %8, align 8
  %62 = icmp ne i64 %61, 0
  br i1 %62, label %63, label %106

63:                                               ; preds = %52
  %64 = load ptr, ptr %3, align 8
  %65 = load ptr, ptr %7, align 8
  call void @unlink_segment(ptr noundef %64, ptr noundef %65)
  %66 = load ptr, ptr %7, align 8
  %67 = getelementptr inbounds nuw %struct.dsa_segment_map, ptr %66, i32 0, i32 2
  %68 = load ptr, ptr %67, align 8
  %69 = getelementptr inbounds nuw %struct.dsa_segment_header, ptr %68, i32 0, i32 6
  store i8 1, ptr %69, align 8
  %70 = load ptr, ptr %7, align 8
  %71 = getelementptr inbounds nuw %struct.dsa_segment_map, ptr %70, i32 0, i32 2
  %72 = load ptr, ptr %71, align 8
  %73 = getelementptr inbounds nuw %struct.dsa_segment_header, ptr %72, i32 0, i32 2
  %74 = load i64, ptr %73, align 8
  %75 = load ptr, ptr %3, align 8
  %76 = getelementptr inbounds nuw %struct.dsa_area, ptr %75, i32 0, i32 0
  %77 = load ptr, ptr %76, align 8
  %78 = getelementptr inbounds nuw %struct.dsa_area_control, ptr %77, i32 0, i32 7
  %79 = load i64, ptr %78, align 8
  %80 = sub i64 %79, %74
  store i64 %80, ptr %78, align 8
  %81 = load ptr, ptr %7, align 8
  %82 = getelementptr inbounds nuw %struct.dsa_segment_map, ptr %81, i32 0, i32 0
  %83 = load ptr, ptr %82, align 8
  %84 = call i32 @dsm_segment_handle(ptr noundef %83)
  call void @dsm_unpin_segment(i32 noundef %84)
  %85 = load ptr, ptr %7, align 8
  %86 = getelementptr inbounds nuw %struct.dsa_segment_map, ptr %85, i32 0, i32 0
  %87 = load ptr, ptr %86, align 8
  call void @dsm_detach(ptr noundef %87)
  %88 = load ptr, ptr %3, align 8
  %89 = getelementptr inbounds nuw %struct.dsa_area, ptr %88, i32 0, i32 0
  %90 = load ptr, ptr %89, align 8
  %91 = getelementptr inbounds nuw %struct.dsa_area_control, ptr %90, i32 0, i32 2
  %92 = load i64, ptr %8, align 8
  %93 = getelementptr inbounds nuw [1024 x i32], ptr %91, i64 0, i64 %92
  store i32 0, ptr %93, align 4
  %94 = load ptr, ptr %3, align 8
  %95 = getelementptr inbounds nuw %struct.dsa_area, ptr %94, i32 0, i32 0
  %96 = load ptr, ptr %95, align 8
  %97 = getelementptr inbounds nuw %struct.dsa_area_control, ptr %96, i32 0, i32 12
  %98 = load i64, ptr %97, align 8
  %99 = add i64 %98, 1
  store i64 %99, ptr %97, align 8
  %100 = load ptr, ptr %7, align 8
  %101 = getelementptr inbounds nuw %struct.dsa_segment_map, ptr %100, i32 0, i32 0
  store ptr null, ptr %101, align 8
  %102 = load ptr, ptr %7, align 8
  %103 = getelementptr inbounds nuw %struct.dsa_segment_map, ptr %102, i32 0, i32 2
  store ptr null, ptr %103, align 8
  %104 = load ptr, ptr %7, align 8
  %105 = getelementptr inbounds nuw %struct.dsa_segment_map, ptr %104, i32 0, i32 1
  store ptr null, ptr %105, align 8
  br label %106

106:                                              ; preds = %63, %52
  call void @llvm.lifetime.end.p0(i64 8, ptr %8) #8
  br label %107

107:                                              ; preds = %106, %2
  %108 = load ptr, ptr %7, align 8
  %109 = getelementptr inbounds nuw %struct.dsa_segment_map, ptr %108, i32 0, i32 2
  %110 = load ptr, ptr %109, align 8
  %111 = icmp ne ptr %110, null
  br i1 %111, label %112, label %115

112:                                              ; preds = %107
  %113 = load ptr, ptr %3, align 8
  %114 = load ptr, ptr %7, align 8
  call void @rebin_segment(ptr noundef %113, ptr noundef %114)
  br label %115

115:                                              ; preds = %112, %107
  %116 = load ptr, ptr %3, align 8
  %117 = getelementptr inbounds nuw %struct.dsa_area, ptr %116, i32 0, i32 0
  %118 = load ptr, ptr %117, align 8
  %119 = getelementptr inbounds nuw %struct.dsa_area_control, ptr %118, i32 0, i32 14
  call void @LWLockRelease(ptr noundef %119)
  %120 = load i32, ptr %6, align 4
  %121 = icmp ne i32 %120, 0
  br i1 %121, label %122, label %125

122:                                              ; preds = %115
  %123 = load ptr, ptr %3, align 8
  %124 = load i64, ptr %4, align 8
  call void @dsa_free(ptr noundef %123, i64 noundef %124)
  br label %125

125:                                              ; preds = %122, %115
  call void @llvm.lifetime.end.p0(i64 8, ptr %7) #8
  call void @llvm.lifetime.end.p0(i64 4, ptr %6) #8
  call void @llvm.lifetime.end.p0(i64 8, ptr %5) #8
  ret void
}