; Function Attrs: nounwind uwtable
define internal fastcc void @destroy_superblock(ptr noundef %0, i64 noundef %1) unnamed_addr #0 {
  %.not.i = icmp eq i64 %1, 0
  br i1 %.not.i, label %dsa_get_address.exit, label %3

3:                                                ; preds = %2
  tail call void asm sideeffect "", "~{memory},~{dirflag},~{fpsr},~{flags}"() #11, !srcloc !9
  %4 = load ptr, ptr %0, align 8
  %5 = getelementptr inbounds nuw i8, ptr %4, i64 6160
  %6 = load i64, ptr %5, align 8
  %7 = getelementptr inbounds nuw i8, ptr %0, i64 40984
  %8 = load i64, ptr %7, align 8
  %.not.i.i = icmp eq i64 %8, %6
  br i1 %.not.i.i, label %check_for_freed_segments.exit.i, label %9, !prof !10

9:                                                ; preds = %3
  %10 = getelementptr inbounds nuw i8, ptr %4, i64 6172
  %11 = tail call zeroext i1 @LWLockAcquire(ptr noundef nonnull %10, i32 noundef 0) #11
  tail call fastcc void @check_for_freed_segments_locked(ptr noundef nonnull %0)
  %12 = load ptr, ptr %0, align 8
  %13 = getelementptr inbounds nuw i8, ptr %12, i64 6172
  tail call void @LWLockRelease(ptr noundef nonnull %13) #11
  br label %check_for_freed_segments.exit.i

check_for_freed_segments.exit.i:                  ; preds = %9, %3
  %14 = lshr i64 %1, 40
  %15 = and i64 %1, 1099511627775
  %.idx.i = mul nuw nsw i64 %14, 40
  %16 = getelementptr i8, ptr %0, i64 24
  %17 = getelementptr i8, ptr %16, i64 %.idx.i
  %18 = load ptr, ptr %17, align 8
  %19 = icmp eq ptr %18, null
  br i1 %19, label %20, label %22, !prof !11

20:                                               ; preds = %check_for_freed_segments.exit.i
  %21 = tail call fastcc ptr @get_segment_by_index(ptr noundef nonnull %0, i64 noundef %14)
  %.pre.i = load ptr, ptr %17, align 8
  br label %22

22:                                               ; preds = %20, %check_for_freed_segments.exit.i
  %23 = phi ptr [ %.pre.i, %20 ], [ %18, %check_for_freed_segments.exit.i ]
  %24 = getelementptr inbounds nuw i8, ptr %23, i64 %15
  br label %dsa_get_address.exit

dsa_get_address.exit:                             ; preds = %2, %22
  %.0.i = phi ptr [ %24, %22 ], [ null, %2 ]
  %25 = getelementptr inbounds nuw i8, ptr %.0.i, i64 40
  %26 = load i16, ptr %25, align 8
  tail call fastcc void @unlink_span(ptr noundef %0, ptr noundef %.0.i)
  %27 = load ptr, ptr %0, align 8
  %28 = getelementptr inbounds nuw i8, ptr %27, i64 6172
  %29 = tail call zeroext i1 @LWLockAcquire(ptr noundef nonnull %28, i32 noundef 0) #11
  %30 = load ptr, ptr %0, align 8
  %31 = getelementptr inbounds nuw i8, ptr %30, i64 6160
  %32 = load i64, ptr %31, align 8
  %33 = getelementptr inbounds nuw i8, ptr %0, i64 40984
  %34 = load i64, ptr %33, align 8
  %.not.i38 = icmp eq i64 %34, %32
  br i1 %.not.i38, label %check_for_freed_segments_locked.exit, label %.preheader.i, !prof !10

.preheader.i:                                     ; preds = %dsa_get_address.exit
  %35 = getelementptr inbounds nuw i8, ptr %0, i64 40976
  %36 = getelementptr inbounds nuw i8, ptr %0, i64 16
  br label %37

37:                                               ; preds = %48, %.preheader.i
  %38 = phi i64 [ 0, %.preheader.i ], [ %50, %48 ]
  %.024.i = phi i32 [ 0, %.preheader.i ], [ %49, %48 ]
  %39 = getelementptr inbounds [1024 x %struct.dsa_segment_map], ptr %36, i64 0, i64 %38
  %40 = getelementptr inbounds nuw i8, ptr %39, i64 16
  %41 = load ptr, ptr %40, align 8
  %.not23.i = icmp eq ptr %41, null
  br i1 %.not23.i, label %48, label %42

42:                                               ; preds = %37
  %43 = getelementptr inbounds nuw i8, ptr %41, i64 48
  %44 = load i8, ptr %43, align 8, !range !15, !noundef !16
  %45 = trunc nuw i8 %44 to i1
  br i1 %45, label %46, label %48

46:                                               ; preds = %42
  %47 = load ptr, ptr %39, align 8
  tail call void @dsm_detach(ptr noundef %47) #11
  tail call void @llvm.memset.p0.i64(ptr noundef nonnull align 8 dereferenceable(24) %39, i8 0, i64 24, i1 false)
  br label %48

48:                                               ; preds = %46, %42, %37
  %49 = add i32 %.024.i, 1
  %50 = sext i32 %49 to i64
  %51 = load i64, ptr %35, align 8
  %.not22.i = icmp ult i64 %51, %50
  br i1 %.not22.i, label %52, label %37, !llvm.loop !17

52:                                               ; preds = %48
  store i64 %32, ptr %33, align 8
  br label %check_for_freed_segments_locked.exit

check_for_freed_segments_locked.exit:             ; preds = %dsa_get_address.exit, %52
  %53 = getelementptr inbounds nuw i8, ptr %.0.i, i64 24
  %54 = load i64, ptr %53, align 8
  %55 = lshr i64 %54, 40
  %56 = tail call fastcc ptr @get_segment_by_index(ptr noundef nonnull %0, i64 noundef %55)
  %57 = getelementptr inbounds nuw i8, ptr %56, i64 24
  %58 = load ptr, ptr %57, align 8
  %59 = load i64, ptr %53, align 8
  %60 = lshr i64 %59, 12
  %61 = and i64 %60, 268435455
  %62 = getelementptr inbounds nuw i8, ptr %.0.i, i64 32
  %63 = load i64, ptr %62, align 8
  tail call void @FreePageManagerPut(ptr noundef %58, i64 noundef %61, i64 noundef %63) #11
  %64 = load ptr, ptr %57, align 8
  %65 = getelementptr inbounds nuw i8, ptr %64, i64 48
  %66 = load i64, ptr %65, align 8
  %67 = getelementptr inbounds nuw i8, ptr %56, i64 16
  %68 = load ptr, ptr %67, align 8
  %69 = getelementptr inbounds nuw i8, ptr %68, i64 8
  %70 = load i64, ptr %69, align 8
  %71 = icmp eq i64 %66, %70
  br i1 %71, label %72, label %.thread41

72:                                               ; preds = %check_for_freed_segments_locked.exit
  %73 = getelementptr inbounds nuw i8, ptr %0, i64 16
  %.not = icmp eq ptr %56, %73
  br i1 %.not, label %.thread41, label %74

74:                                               ; preds = %72
  %75 = ptrtoint ptr %56 to i64
  %76 = ptrtoint ptr %73 to i64
  %77 = sub i64 %75, %76
  %78 = sdiv exact i64 %77, 40
  %79 = getelementptr inbounds nuw i8, ptr %68, i64 24
  %80 = load i64, ptr %79, align 8
  %.not.i39 = icmp eq i64 %80, -1
  br i1 %.not.i39, label %89, label %81

81:                                               ; preds = %74
  %82 = tail call fastcc ptr @get_segment_by_index(ptr noundef nonnull %0, i64 noundef %80)
  %83 = load ptr, ptr %67, align 8
  %84 = getelementptr inbounds nuw i8, ptr %83, i64 32
  %85 = load i64, ptr %84, align 8
  %86 = getelementptr inbounds nuw i8, ptr %82, i64 16
  %87 = load ptr, ptr %86, align 8
  %88 = getelementptr inbounds nuw i8, ptr %87, i64 32
  store i64 %85, ptr %88, align 8
  br label %97

89:                                               ; preds = %74
  %90 = getelementptr inbounds nuw i8, ptr %68, i64 32
  %91 = load i64, ptr %90, align 8
  %92 = load ptr, ptr %0, align 8
  %93 = getelementptr inbounds nuw i8, ptr %92, i64 4160
  %94 = getelementptr inbounds nuw i8, ptr %68, i64 40
  %95 = load i64, ptr %94, align 8
  %96 = getelementptr inbounds nuw [16 x i64], ptr %93, i64 0, i64 %95
  store i64 %91, ptr %96, align 8
  br label %97

97:                                               ; preds = %89, %81
  %98 = load ptr, ptr %67, align 8
  %99 = getelementptr inbounds nuw i8, ptr %98, i64 32
  %100 = load i64, ptr %99, align 8
  %.not14.i = icmp eq i64 %100, -1
  br i1 %.not14.i, label %.thread, label %101

101:                                              ; preds = %97
  %102 = tail call fastcc ptr @get_segment_by_index(ptr noundef nonnull %0, i64 noundef %100)
  %103 = load ptr, ptr %67, align 8
  %104 = getelementptr inbounds nuw i8, ptr %103, i64 24
  %105 = load i64, ptr %104, align 8
  %106 = getelementptr inbounds nuw i8, ptr %102, i64 16
  %107 = load ptr, ptr %106, align 8
  %108 = getelementptr inbounds nuw i8, ptr %107, i64 24
  store i64 %105, ptr %108, align 8
  %.pre = load ptr, ptr %67, align 8
  br label %.thread

.thread:                                          ; preds = %101, %97
  %109 = phi ptr [ %.pre, %101 ], [ %98, %97 ]
  %110 = getelementptr inbounds nuw i8, ptr %109, i64 48
  store i8 1, ptr %110, align 8
  %111 = load ptr, ptr %67, align 8
  %112 = getelementptr inbounds nuw i8, ptr %111, i64 16
  %113 = load i64, ptr %112, align 8
  %114 = load ptr, ptr %0, align 8
  %115 = getelementptr inbounds nuw i8, ptr %114, i64 6128
  %116 = load i64, ptr %115, align 8
  %117 = sub i64 %116, %113
  store i64 %117, ptr %115, align 8
  %118 = load ptr, ptr %56, align 8
  %119 = tail call i32 @dsm_segment_handle(ptr noundef %118) #11
  tail call void @dsm_unpin_segment(i32 noundef %119) #11
  %120 = load ptr, ptr %56, align 8
  tail call void @dsm_detach(ptr noundef %120) #11
  %121 = load ptr, ptr %0, align 8
  %122 = getelementptr inbounds nuw i8, ptr %121, i64 60
  %123 = getelementptr inbounds nuw [1024 x i32], ptr %122, i64 0, i64 %78
  store i32 0, ptr %123, align 4
  %124 = load ptr, ptr %0, align 8
  %125 = getelementptr inbounds nuw i8, ptr %124, i64 6160
  %126 = load i64, ptr %125, align 8
  %127 = add i64 %126, 1
  store i64 %127, ptr %125, align 8
  tail call void @llvm.memset.p0.i64(ptr noundef nonnull align 8 dereferenceable(24) %56, i8 0, i64 24, i1 false)
  br label %128

.thread41:                                        ; preds = %72, %check_for_freed_segments_locked.exit
  tail call fastcc void @rebin_segment(ptr noundef nonnull %0, ptr noundef nonnull %56)
  br label %128

128:                                              ; preds = %.thread, %.thread41
  %129 = load ptr, ptr %0, align 8
  %130 = getelementptr inbounds nuw i8, ptr %129, i64 6172
  tail call void @LWLockRelease(ptr noundef nonnull %130) #11
  %.not37 = icmp eq i16 %26, 0
  br i1 %.not37, label %132, label %131

131:                                              ; preds = %128
  tail call void @dsa_free(ptr noundef nonnull %0, i64 noundef %1)
  br label %132

132:                                              ; preds = %131, %128
  ret void
}